; Function Attrs: null_pointer_is_valid sspstrong uwtable
define hidden i32 @netdfs_dissect_struct_dfs_Info103(ptr noundef %0, i32 noundef %1, ptr noundef %2, ptr noundef %3, ptr noundef %4, ptr noundef %5, i32 noundef %6, i32 %7) local_unnamed_addr #0 {
  %9 = getelementptr inbounds nuw i8, ptr %4, i64 25
  %10 = load i8, ptr %9, align 1, !range !6, !noundef !7
  %11 = trunc nuw i8 %10 to i1
  %12 = and i32 %1, 3
  %.not = icmp eq i32 %12, 0
  %or.cond = or i1 %.not, %11
  %13 = and i32 %1, -4
  %14 = add i32 %13, 4
  %.0 = select i1 %or.cond, i32 %1, i32 %14
  %.not26 = icmp eq ptr %3, null
  br i1 %.not26, label %19, label %15

15:                                               ; preds = %8
  %16 = tail call ptr @proto_tree_add_item(ptr noundef nonnull %3, i32 noundef %6, ptr noundef %0, i32 noundef %.0, i32 noundef -1, i32 noundef 0)
  %17 = load i32, ptr @ett_netdfs_dfs_Info103, align 4
  %18 = tail call ptr @proto_item_add_subtree(ptr noundef %16, i32 noundef %17)
  br label %19

19:                                               ; preds = %15, %8
  %.024 = phi ptr [ %16, %15 ], [ null, %8 ]
  %.023 = phi ptr [ %18, %15 ], [ null, %8 ]
  %20 = load i32, ptr @hf_netdfs_dfs_Info103_flags, align 4
  %21 = tail call i32 @netdfs_dissect_bitmap_dfs_PropertyFlags(ptr noundef %0, i32 noundef %.0, ptr noundef %2, ptr noundef %.023, ptr noundef %4, ptr noundef %5, i32 noundef %20, i32 poison)
  %22 = sub i32 %21, %.0
  tail call void @proto_item_set_len(ptr noundef %.024, i32 noundef %22)
  %23 = getelementptr inbounds nuw i8, ptr %4, i64 64
  %24 = load ptr, ptr %23, align 8
  %25 = getelementptr inbounds nuw i8, ptr %24, i64 96
  %26 = load i32, ptr %25, align 8
  %27 = and i32 %26, 1
  %.not27 = icmp eq i32 %27, 0
  br i1 %.not27, label %35, label %28

28:                                               ; preds = %19
  %29 = load i8, ptr %9, align 1, !range !6, !noundef !7
  %30 = trunc nuw i8 %29 to i1
  %31 = and i32 %21, 3
  %.not28 = icmp eq i32 %31, 0
  %or.cond29 = or i1 %.not28, %30
  br i1 %or.cond29, label %35, label %32

32:                                               ; preds = %28
  %33 = and i32 %21, -4
  %34 = add i32 %33, 4
  br label %35

35:                                               ; preds = %28, %32, %19
  %.1 = phi i32 [ %21, %28 ], [ %34, %32 ], [ %21, %19 ]
  ret i32 %.1
}